target datalayout = "e-m:e-p270:32:32-p271:32:32-p272:64:64-i64:64-i128:128-f80:128-n8:16:32:64-S128"
target triple = "x86_64-pc-linux-gnu"

%struct.strbuf = type { i64, i64, ptr }
%struct.ls_tree_options = type { i8, i32, i32, %struct.pathspec, ptr, ptr }
%struct.pathspec = type { i32, i8, i32, i32, ptr }

@strbuf_slopbuf = external global [0 x i8], align 1
@__const.show_tree_common_default_long.sb = private unnamed_addr constant %struct.strbuf { i64 0, i64 0, ptr @strbuf_slopbuf }, align 8
@stdout = external global ptr, align 8
@.str.32 = private unnamed_addr constant [11 x i8] c"./strbuf.h\00", align 1
@.str.33 = private unnamed_addr constant [30 x i8] c"strbuf_setlen() beyond buffer\00", align 1

; Function Attrs: inlinehint nounwind uwtable
define internal void @strbuf_setlen(ptr noundef %0, i64 noundef %1) #4 {
  %3 = alloca ptr, align 8
  %4 = alloca i64, align 8
  store ptr %0, ptr %3, align 8, !tbaa !57
  store i64 %1, ptr %4, align 8, !tbaa !64
  %5 = load i64, ptr %4, align 8, !tbaa !64
  %6 = load ptr, ptr %3, align 8, !tbaa !57
  %7 = getelementptr inbounds nuw %struct.strbuf, ptr %6, i32 0, i32 0
  %8 = load i64, ptr %7, align 8, !tbaa !73
  %9 = icmp ne i64 %8, 0
  br i1 %9, label %10, label %15

10:                                               ; preds = %2
  %11 = load ptr, ptr %3, align 8, !tbaa !57
  %12 = getelementptr inbounds nuw %struct.strbuf, ptr %11, i32 0, i32 0
  %13 = load i64, ptr %12, align 8, !tbaa !73
  %14 = sub i64 %13, 1
  br label %16

15:                                               ; preds = %2
  br label %16

16:                                               ; preds = %15, %10
  %17 = phi i64 [ %14, %10 ], [ 0, %15 ]
  %18 = icmp ugt i64 %5, %17
  br i1 %18, label %19, label %20

19:                                               ; preds = %16
  call void (ptr, i32, ptr, ...) @BUG_fl(ptr noundef @.str.32, i32 noundef 167, ptr noundef @.str.33) #10
  unreachable

20:                                               ; preds = %16
  %21 = load i64, ptr %4, align 8, !tbaa !64
  %22 = load ptr, ptr %3, align 8, !tbaa !57
  %23 = getelementptr inbounds nuw %struct.strbuf, ptr %22, i32 0, i32 1
  store i64 %21, ptr %23, align 8, !tbaa !63
  %24 = load ptr, ptr %3, align 8, !tbaa !57
  %25 = getelementptr inbounds nuw %struct.strbuf, ptr %24, i32 0, i32 2
  %26 = load ptr, ptr %25, align 8, !tbaa !61
  %27 = icmp ne ptr %26, @strbuf_slopbuf
  br i1 %27, label %28, label %34

28:                                               ; preds = %20
  %29 = load ptr, ptr %3, align 8, !tbaa !57
  %30 = getelementptr inbounds nuw %struct.strbuf, ptr %29, i32 0, i32 2
  %31 = load ptr, ptr %30, align 8, !tbaa !61
  %32 = load i64, ptr %4, align 8, !tbaa !64
  %33 = getelementptr inbounds nuw i8, ptr %31, i64 %32
  store i8 0, ptr %33, align 1, !tbaa !15
  br label %35

34:                                               ; preds = %20
  br label %35

35:                                               ; preds = %34, %28
  ret void
}

; Function Attrs: inlinehint nounwind uwtable
define internal void @strbuf_addstr(ptr noundef %0, ptr noundef %1) #4 {
  %3 = alloca ptr, align 8
  %4 = alloca ptr, align 8
  store ptr %0, ptr %3, align 8, !tbaa !57
  store ptr %1, ptr %4, align 8, !tbaa !11
  %5 = load ptr, ptr %3, align 8, !tbaa !57
  %6 = load ptr, ptr %4, align 8, !tbaa !11
  %7 = load ptr, ptr %4, align 8, !tbaa !11
  %8 = call i64 @strlen(ptr noundef %7) #11
  call void @strbuf_add(ptr noundef %5, ptr noundef %6, i64 noundef %8)
  ret void
}

; Function Attrs: nounwind uwtable
define internal void @show_tree_common_default_long(ptr noundef %0, ptr noundef %1, ptr noundef %2, i64 noundef %3) #0 {
  %5 = alloca ptr, align 8
  %6 = alloca ptr, align 8
  %7 = alloca ptr, align 8
  %8 = alloca i64, align 8
  %9 = alloca ptr, align 8
  %10 = alloca %struct.strbuf, align 8
  %11 = alloca ptr, align 8
  store ptr %0, ptr %5, align 8, !tbaa !59
  store ptr %1, ptr %6, align 8, !tbaa !57
  store ptr %2, ptr %7, align 8, !tbaa !11
  store i64 %3, ptr %8, align 8, !tbaa !64
  call void @llvm.lifetime.start.p0(i64 8, ptr %9) #9
  %12 = load ptr, ptr %5, align 8, !tbaa !59
  %13 = getelementptr inbounds nuw %struct.ls_tree_options, ptr %12, i32 0, i32 4
  %14 = load ptr, ptr %13, align 8, !tbaa !33
  store ptr %14, ptr %9, align 8, !tbaa !11
  %15 = load ptr, ptr %6, align 8, !tbaa !57
  %16 = load ptr, ptr %7, align 8, !tbaa !11
  call void @strbuf_addstr(ptr noundef %15, ptr noundef %16)
  %17 = load ptr, ptr %5, align 8, !tbaa !59
  %18 = load i8, ptr %17, align 8
  %19 = and i8 %18, 1
  %20 = zext i8 %19 to i32
  %21 = icmp ne i32 %20, 0
  br i1 %21, label %22, label %33

22:                                               ; preds = %4
  call void @llvm.lifetime.start.p0(i64 24, ptr %10) #9
  call void @llvm.memcpy.p0.p0.i64(ptr align 8 %10, ptr align 8 @__const.show_tree_common_default_long.sb, i64 24, i1 false)
  call void @llvm.lifetime.start.p0(i64 8, ptr %11) #9
  %23 = load ptr, ptr %6, align 8, !tbaa !57
  %24 = getelementptr inbounds nuw %struct.strbuf, ptr %23, i32 0, i32 2
  %25 = load ptr, ptr %24, align 8, !tbaa !61
  %26 = load ptr, ptr %9, align 8, !tbaa !11
  %27 = call ptr @relative_path(ptr noundef %25, ptr noundef %26, ptr noundef %10)
  store ptr %27, ptr %11, align 8, !tbaa !11
  %28 = load ptr, ptr %11, align 8, !tbaa !11
  %29 = load ptr, ptr @stdout, align 8, !tbaa !67
  %30 = call i32 @fputs(ptr noundef %28, ptr noundef %29)
  %31 = load ptr, ptr @stdout, align 8, !tbaa !67
  %32 = call i32 @fputc(i32 noundef 0, ptr noundef %31)
  call void @strbuf_release(ptr noundef %10)
  call void @llvm.lifetime.end.p0(i64 8, ptr %11) #9
  call void @llvm.lifetime.end.p0(i64 24, ptr %10) #9
  br label %39

33:                                               ; preds = %4
  %34 = load ptr, ptr %6, align 8, !tbaa !57
  %35 = getelementptr inbounds nuw %struct.strbuf, ptr %34, i32 0, i32 2
  %36 = load ptr, ptr %35, align 8, !tbaa !61
  %37 = load ptr, ptr %9, align 8, !tbaa !11
  %38 = load ptr, ptr @stdout, align 8, !tbaa !67
  call void @write_name_quoted_relative(ptr noundef %36, ptr noundef %37, ptr noundef %38, i32 noundef 10)
  br label %39

39:                                               ; preds = %33, %22
  %40 = load ptr, ptr %6, align 8, !tbaa !57
  %41 = load i64, ptr %8, align 8, !tbaa !64
  call void @strbuf_setlen(ptr noundef %40, i64 noundef %41)
  call void @llvm.lifetime.end.p0(i64 8, ptr %9) #9
  ret void
}