; Function Attrs: nounwind uwtable
define internal fastcc void @show_tree_common_default_long(ptr noundef readonly captures(none) %0, ptr noundef %1, ptr noundef %2, i64 noundef %3) unnamed_addr #0 {
  %5 = alloca %struct.strbuf, align 8
  %6 = getelementptr inbounds nuw i8, ptr %0, i64 40
  %7 = load ptr, ptr %6, align 8, !tbaa !24
  %8 = tail call i64 @strlen(ptr noundef nonnull dereferenceable(1) %2) #15
  tail call void @strbuf_add(ptr noundef %1, ptr noundef nonnull %2, i64 noundef %8) #13
  %9 = load i8, ptr %0, align 8
  %10 = and i8 %9, 1
  %.not = icmp eq i8 %10, 0
  br i1 %.not, label %19, label %11

11:                                               ; preds = %4
  call void @llvm.lifetime.start.p0(i64 24, ptr nonnull %5) #13
  call void @llvm.memcpy.p0.p0.i64(ptr noundef nonnull align 8 dereferenceable(24) %5, ptr noundef nonnull align 8 dereferenceable(24) @__const.show_tree_fmt.sbuf, i64 24, i1 false)
  %12 = getelementptr inbounds nuw i8, ptr %1, i64 16
  %13 = load ptr, ptr %12, align 8, !tbaa !45
  %14 = call ptr @relative_path(ptr noundef %13, ptr noundef %7, ptr noundef nonnull %5) #13
  %15 = load ptr, ptr @stdout, align 8, !tbaa !55
  %16 = call i32 @fputs(ptr noundef %14, ptr noundef %15)
  %17 = load ptr, ptr @stdout, align 8, !tbaa !55
  %18 = call i32 @fputc(i32 noundef 0, ptr noundef %17)
  call void @strbuf_release(ptr noundef nonnull %5) #13
  call void @llvm.lifetime.end.p0(i64 24, ptr nonnull %5) #13
  br label %23

19:                                               ; preds = %4
  %20 = getelementptr inbounds nuw i8, ptr %1, i64 16
  %21 = load ptr, ptr %20, align 8, !tbaa !45
  %22 = load ptr, ptr @stdout, align 8, !tbaa !55
  tail call void @write_name_quoted_relative(ptr noundef %21, ptr noundef %7, ptr noundef %22, i32 noundef 10) #13
  br label %23

23:                                               ; preds = %19, %11
  %24 = load i64, ptr %1, align 8, !tbaa !51
  %spec.select.i = call i64 @llvm.usub.sat.i64(i64 %24, i64 1)
  %25 = icmp ugt i64 %3, %spec.select.i
  br i1 %25, label %26, label %27

26:                                               ; preds = %23
  call void (ptr, i32, ptr, ...) @BUG_fl(ptr noundef nonnull @.str.32, i32 noundef 167, ptr noundef nonnull @.str.33) #14
  unreachable

27:                                               ; preds = %23
  %28 = getelementptr inbounds nuw i8, ptr %1, i64 8
  store i64 %3, ptr %28, align 8, !tbaa !47
  %29 = getelementptr inbounds nuw i8, ptr %1, i64 16
  %30 = load ptr, ptr %29, align 8, !tbaa !45
  %.not9.i = icmp eq ptr %30, @strbuf_slopbuf
  br i1 %.not9.i, label %strbuf_setlen.exit, label %31

31:                                               ; preds = %27
  %32 = getelementptr inbounds nuw i8, ptr %30, i64 %3
  store i8 0, ptr %32, align 1, !tbaa !8
  br label %strbuf_setlen.exit

strbuf_setlen.exit:                               ; preds = %27, %31
  ret void
}